; Function Attrs: mustprogress uwtable
define void @_ZN7rocksdb17CountedFileSystemC2ERKSt10shared_ptrINS_10FileSystemEE(ptr noundef nonnull align 8 dereferenceable(120) %0, ptr noundef nonnull align 8 dereferenceable(16) %1) unnamed_addr #0 align 2 personality ptr @__gxx_personality_v0 {
  tail call void @_ZN7rocksdb17FileSystemWrapperC2ERKSt10shared_ptrINS_10FileSystemEE(ptr noundef nonnull align 8 dereferenceable(48) %0, ptr noundef nonnull align 8 dereferenceable(16) %1)
  store ptr getelementptr inbounds nuw inrange(-16, 496) (i8, ptr @_ZTVN7rocksdb17CountedFileSystemE, i64 16), ptr %0, align 8, !tbaa !4
  %3 = getelementptr inbounds nuw i8, ptr %0, i64 48
  %4 = getelementptr inbounds nuw i8, ptr %0, i64 96
  store i64 0, ptr %4, align 8, !tbaa !52
  %5 = getelementptr inbounds nuw i8, ptr %0, i64 104
  store i32 0, ptr %5, align 8, !tbaa !54
  %6 = getelementptr inbounds nuw i8, ptr %0, i64 112
  store i64 0, ptr %6, align 8, !tbaa !52
  tail call void @llvm.memset.p0.i64(ptr noundef nonnull align 8 dereferenceable(72) %3, i8 0, i64 44, i1 false)
  ret void
}